target datalayout = "e-m:e-p270:32:32-p271:32:32-p272:64:64-i64:64-i128:128-f80:128-n8:16:32:64-S128"
target triple = "x86_64-pc-linux-gnu"

%"class.std::shared_ptr" = type { %"class.std::__shared_ptr" }
%"class.std::__shared_ptr" = type { ptr, %"class.std::__shared_count" }
%"class.std::__shared_count" = type { ptr }
%"class.open_spiel::hearts::HeartsState" = type { %"class.open_spiel::State.base", i8, i8, i8, i8, i8, i8, i8, i8, i32, i32, i8, i32, i32, i32, %"struct.std::array", %"struct.std::array.29", %"struct.std::array.29", %"class.std::vector.35", %"class.std::vector.40" }
%"class.open_spiel::State.base" = type <{ ptr, %"class.std::shared_ptr", i32, i32, %"class.std::vector", i32 }>
%"class.std::vector" = type { %"struct.std::_Vector_base" }
%"struct.std::_Vector_base" = type { %"struct.std::_Vector_base<open_spiel::State::PlayerAction, std::allocator<open_spiel::State::PlayerAction>>::_Vector_impl" }
%"struct.std::_Vector_base<open_spiel::State::PlayerAction, std::allocator<open_spiel::State::PlayerAction>>::_Vector_impl" = type { %"struct.std::_Vector_base<open_spiel::State::PlayerAction, std::allocator<open_spiel::State::PlayerAction>>::_Vector_impl_data" }
%"struct.std::_Vector_base<open_spiel::State::PlayerAction, std::allocator<open_spiel::State::PlayerAction>>::_Vector_impl_data" = type { ptr, ptr, ptr }
%"struct.std::array" = type { [13 x %"class.open_spiel::hearts::Trick"] }
%"class.open_spiel::hearts::Trick" = type { i8, i32, i32, i32, i32, i32, %"class.std::vector.24" }
%"class.std::vector.24" = type { %"struct.std::_Vector_base.25" }
%"struct.std::_Vector_base.25" = type { %"struct.std::_Vector_base<int, std::allocator<int>>::_Vector_impl" }
%"struct.std::_Vector_base<int, std::allocator<int>>::_Vector_impl" = type { %"struct.std::_Vector_base<int, std::allocator<int>>::_Vector_impl_data" }
%"struct.std::_Vector_base<int, std::allocator<int>>::_Vector_impl_data" = type { ptr, ptr, ptr }
%"struct.std::array.29" = type { [52 x %"class.absl::debian2::optional.30"] }
%"class.absl::debian2::optional.30" = type { %"class.absl::debian2::optional_internal::optional_data.31" }
%"class.absl::debian2::optional_internal::optional_data.31" = type { %"class.absl::debian2::optional_internal::optional_data_base.32" }
%"class.absl::debian2::optional_internal::optional_data_base.32" = type { %"class.absl::debian2::optional_internal::optional_data_dtor_base.33" }
%"class.absl::debian2::optional_internal::optional_data_dtor_base.33" = type { i8, %union.anon.34 }
%union.anon.34 = type { i32 }
%"class.std::vector.35" = type { %"struct.std::_Vector_base.36" }
%"struct.std::_Vector_base.36" = type { %"struct.std::_Vector_base<std::vector<int>, std::allocator<std::vector<int>>>::_Vector_impl" }
%"struct.std::_Vector_base<std::vector<int>, std::allocator<std::vector<int>>>::_Vector_impl" = type { %"struct.std::_Vector_base<std::vector<int>, std::allocator<std::vector<int>>>::_Vector_impl_data" }
%"struct.std::_Vector_base<std::vector<int>, std::allocator<std::vector<int>>>::_Vector_impl_data" = type { ptr, ptr, ptr }
%"class.std::vector.40" = type { %"struct.std::_Vector_base.41" }
%"struct.std::_Vector_base.41" = type { %"struct.std::_Vector_base<double, std::allocator<double>>::_Vector_impl" }
%"struct.std::_Vector_base<double, std::allocator<double>>::_Vector_impl" = type { %"struct.std::_Vector_base<double, std::allocator<double>>::_Vector_impl_data" }
%"struct.std::_Vector_base<double, std::allocator<double>>::_Vector_impl_data" = type { ptr, ptr, ptr }

; Function Attrs: mustprogress nounwind uwtable
define noundef i32 @_ZNK10open_spiel6hearts11HeartsState13CurrentPlayerEv(ptr noundef nonnull align 8 dereferenceable(1600) %0) unnamed_addr #5 align 2 {
  %2 = alloca i32, align 4
  %3 = alloca ptr, align 8
  store ptr %0, ptr %3, align 8
  %4 = load ptr, ptr %3, align 8
  %5 = getelementptr inbounds nuw %"class.open_spiel::hearts::HeartsState", ptr %4, i32 0, i32 13
  %6 = load i32, ptr %5, align 4
  %7 = icmp eq i32 %6, 1
  br i1 %7, label %8, label %9

8:                                                ; preds = %1
  store i32 -1, ptr %2, align 4
  br label %12

9:                                                ; preds = %1
  %10 = getelementptr inbounds nuw %"class.open_spiel::hearts::HeartsState", ptr %4, i32 0, i32 12
  %11 = load i32, ptr %10, align 8
  store i32 %11, ptr %2, align 4
  br label %12

12:                                               ; preds = %9, %8
  %13 = load i32, ptr %2, align 4
  ret i32 %13
}