; Function Attrs: mustprogress nofree norecurse nosync nounwind willreturn memory(argmem: read) uwtable
define noundef i32 @_ZNK10open_spiel6hearts11HeartsState13CurrentPlayerEv(ptr nocapture noundef nonnull readonly align 8 dereferenceable(1600) %0) unnamed_addr #9 align 2 {
  %2 = getelementptr inbounds nuw i8, ptr %0, i64 84
  %3 = load i32, ptr %2, align 4
  %4 = icmp eq i32 %3, 1
  %5 = getelementptr inbounds nuw i8, ptr %0, i64 80
  %6 = load i32, ptr %5, align 8
  %.0 = select i1 %4, i32 -1, i32 %6
  ret i32 %.0
}